target datalayout = "e-m:e-p270:32:32-p271:32:32-p272:64:64-i64:64-i128:128-f80:128-n8:16:32:64-S128"
target triple = "x86_64-pc-linux-gnu"

%struct._scsi_task_data = type { i32, ptr, ptr }
%struct._itlq_nexus_t = type { i32, i32, i16, i16, i16, i16, i32, i32, i32, %struct.nstime_t, %struct.nstime_t, ptr }
%struct.nstime_t = type { i64, i32 }

@cdb_control_fields = hidden constant [6 x ptr] [ptr @hf_scsi_control_vendor_specific, ptr @hf_scsi_control_reserved, ptr @hf_scsi_control_naca, ptr @hf_scsi_control_obs1, ptr @hf_scsi_control_obs2, ptr null], align 16
@hf_scsi_control = hidden global i32 0, align 4
@ett_scsi_control = hidden global i32 0, align 4
@hf_scsi_paramlen16 = internal global i32 0, align 4
@hf_scsi_persresv_scope = internal global i32 0, align 4
@hf_scsi_persresv_type = internal global i32 0, align 4
@hf_scsi_persresvout_svcaction = internal global i32 0, align 4
@hf_scsi_persresvout_reskey = internal global i32 0, align 4
@hf_scsi_persresvout_sareskey = internal global i32 0, align 4
@dissect_spc_persistentreserveout.persresv_fields = internal constant [4 x ptr] [ptr @hf_scsi_persresv_control_rsvd, ptr @hf_scsi_persresv_control_unreg, ptr @hf_scsi_persresv_control_aptpl, ptr null], align 16
@hf_scsi_persresvout_obsolete = internal global i32 0, align 4
@hf_scsi_persresvout_control = internal global i32 0, align 4
@ett_persresv_control = internal global i32 0, align 4
@hf_scsi_persresvout_rel_tpi = internal global i32 0, align 4
@hf_scsi_persresvout_transportid_len = internal global i32 0, align 4
@hf_scsi_persresvout_transportid = internal global i32 0, align 4
@dissect_spc_persistentreserveout.persresv_fields.49 = internal constant [6 x ptr] [ptr @hf_scsi_persresv_control_rsvd1, ptr @hf_scsi_persresv_control_spec_i_pt, ptr @hf_scsi_persresv_control_all_tg_pt, ptr @hf_scsi_persresv_control_rsvd2, ptr @hf_scsi_persresv_control_aptpl, ptr null], align 16

; Function Attrs: nounwind uwtable
define hidden void @dissect_spc_persistentreserveout(ptr noundef %0, ptr noundef %1, ptr noundef %2, i32 noundef %3, i32 noundef %4, i32 noundef %5, i32 noundef %6, ptr noundef %7) #0 {
  %9 = alloca ptr, align 8
  %10 = alloca ptr, align 8
  %11 = alloca ptr, align 8
  %12 = alloca i32, align 4
  %13 = alloca i32, align 4
  %14 = alloca i32, align 4
  %15 = alloca i32, align 4
  %16 = alloca ptr, align 8
  %17 = alloca i8, align 1
  %18 = alloca i32, align 4
  store ptr %0, ptr %9, align 8
  store ptr %1, ptr %10, align 8
  store ptr %2, ptr %11, align 8
  store i32 %3, ptr %12, align 4
  store i32 %4, ptr %13, align 4
  store i32 %5, ptr %14, align 4
  store i32 %6, ptr %15, align 4
  store ptr %7, ptr %16, align 8
  %19 = load ptr, ptr %11, align 8
  %20 = icmp ne ptr %19, null
  br i1 %20, label %22, label %21

21:                                               ; preds = %8
  br label %165

22:                                               ; preds = %8
  %23 = load i32, ptr %13, align 4
  %24 = icmp ne i32 %23, 0
  br i1 %24, label %25, label %86

25:                                               ; preds = %22
  %26 = load i32, ptr %14, align 4
  %27 = icmp ne i32 %26, 0
  br i1 %27, label %28, label %86

28:                                               ; preds = %25
  %29 = load ptr, ptr %9, align 8
  %30 = load i32, ptr %12, align 4
  %31 = call zeroext i8 @tvb_get_guint8(ptr noundef %29, i32 noundef %30)
  %32 = zext i8 %31 to i32
  %33 = and i32 %32, 31
  %34 = trunc i32 %33 to i8
  store i8 %34, ptr %17, align 1
  %35 = load ptr, ptr %11, align 8
  %36 = load i32, ptr @hf_scsi_persresvout_svcaction, align 4
  %37 = load ptr, ptr %9, align 8
  %38 = load i32, ptr %12, align 4
  %39 = call ptr @proto_tree_add_item(ptr noundef %35, i32 noundef %36, ptr noundef %37, i32 noundef %38, i32 noundef 1, i32 noundef 0)
  %40 = load i8, ptr %17, align 1
  %41 = zext i8 %40 to i32
  %42 = icmp ne i32 %41, 0
  br i1 %42, label %43, label %64

43:                                               ; preds = %28
  %44 = load i8, ptr %17, align 1
  %45 = zext i8 %44 to i32
  %46 = icmp ne i32 %45, 6
  br i1 %46, label %47, label %64

47:                                               ; preds = %43
  %48 = load i8, ptr %17, align 1
  %49 = zext i8 %48 to i32
  %50 = icmp ne i32 %49, 3
  br i1 %50, label %51, label %64

51:                                               ; preds = %47
  %52 = load ptr, ptr %11, align 8
  %53 = load i32, ptr @hf_scsi_persresv_scope, align 4
  %54 = load ptr, ptr %9, align 8
  %55 = load i32, ptr %12, align 4
  %56 = add i32 %55, 1
  %57 = call ptr @proto_tree_add_item(ptr noundef %52, i32 noundef %53, ptr noundef %54, i32 noundef %56, i32 noundef 1, i32 noundef 0)
  %58 = load ptr, ptr %11, align 8
  %59 = load i32, ptr @hf_scsi_persresv_type, align 4
  %60 = load ptr, ptr %9, align 8
  %61 = load i32, ptr %12, align 4
  %62 = add i32 %61, 1
  %63 = call ptr @proto_tree_add_item(ptr noundef %58, i32 noundef %59, ptr noundef %60, i32 noundef %62, i32 noundef 1, i32 noundef 0)
  br label %64

64:                                               ; preds = %51, %47, %43, %28
  %65 = load ptr, ptr %11, align 8
  %66 = load i32, ptr @hf_scsi_paramlen16, align 4
  %67 = load ptr, ptr %9, align 8
  %68 = load i32, ptr %12, align 4
  %69 = add i32 %68, 4
  %70 = call ptr @proto_tree_add_item(ptr noundef %65, i32 noundef %66, ptr noundef %67, i32 noundef %69, i32 noundef 4, i32 noundef 0)
  %71 = load ptr, ptr %11, align 8
  %72 = load ptr, ptr %9, align 8
  %73 = load i32, ptr %12, align 4
  %74 = add i32 %73, 8
  %75 = load i32, ptr @hf_scsi_control, align 4
  %76 = load i32, ptr @ett_scsi_control, align 4
  %77 = call ptr @proto_tree_add_bitmask(ptr noundef %71, ptr noundef %72, i32 noundef %74, i32 noundef %75, i32 noundef %76, ptr noundef @cdb_control_fields, i32 noundef 0)
  %78 = load ptr, ptr %9, align 8
  %79 = load i32, ptr %12, align 4
  %80 = call zeroext i8 @tvb_get_guint8(ptr noundef %78, i32 noundef %79)
  %81 = zext i8 %80 to i16
  %82 = load ptr, ptr %16, align 8
  %83 = getelementptr inbounds %struct._scsi_task_data, ptr %82, i32 0, i32 1
  %84 = load ptr, ptr %83, align 8
  %85 = getelementptr inbounds %struct._itlq_nexus_t, ptr %84, i32 0, i32 4
  store i16 %81, ptr %85, align 4
  br label %165

86:                                               ; preds = %25, %22
  %87 = load i32, ptr %13, align 4
  %88 = icmp ne i32 %87, 0
  br i1 %88, label %89, label %163

89:                                               ; preds = %86
  %90 = load i32, ptr %14, align 4
  %91 = icmp ne i32 %90, 0
  br i1 %91, label %163, label %92

92:                                               ; preds = %89
  %93 = load ptr, ptr %11, align 8
  %94 = load i32, ptr @hf_scsi_persresvout_reskey, align 4
  %95 = load ptr, ptr %9, align 8
  %96 = load i32, ptr %12, align 4
  %97 = call ptr @proto_tree_add_item(ptr noundef %93, i32 noundef %94, ptr noundef %95, i32 noundef %96, i32 noundef 8, i32 noundef 0)
  %98 = load ptr, ptr %11, align 8
  %99 = load i32, ptr @hf_scsi_persresvout_sareskey, align 4
  %100 = load ptr, ptr %9, align 8
  %101 = load i32, ptr %12, align 4
  %102 = add i32 %101, 8
  %103 = call ptr @proto_tree_add_item(ptr noundef %98, i32 noundef %99, ptr noundef %100, i32 noundef %102, i32 noundef 8, i32 noundef 0)
  %104 = load ptr, ptr %16, align 8
  %105 = getelementptr inbounds %struct._scsi_task_data, ptr %104, i32 0, i32 1
  %106 = load ptr, ptr %105, align 8
  %107 = getelementptr inbounds %struct._itlq_nexus_t, ptr %106, i32 0, i32 4
  %108 = load i16, ptr %107, align 4
  %109 = zext i16 %108 to i32
  %110 = icmp eq i32 %109, 7
  br i1 %110, label %111, label %148

111:                                              ; preds = %92
  %112 = load ptr, ptr %9, align 8
  %113 = load i32, ptr %12, align 4
  %114 = add i32 %113, 20
  %115 = call i32 @tvb_get_ntohl(ptr noundef %112, i32 noundef %114)
  store i32 %115, ptr %18, align 4
  %116 = load ptr, ptr %11, align 8
  %117 = load i32, ptr @hf_scsi_persresvout_obsolete, align 4
  %118 = load ptr, ptr %9, align 8
  %119 = load i32, ptr %12, align 4
  %120 = add i32 %119, 16
  %121 = call ptr @proto_tree_add_item(ptr noundef %116, i32 noundef %117, ptr noundef %118, i32 noundef %120, i32 noundef 1, i32 noundef 0)
  %122 = load ptr, ptr %11, align 8
  %123 = load ptr, ptr %9, align 8
  %124 = load i32, ptr %12, align 4
  %125 = add i32 %124, 17
  %126 = load i32, ptr @hf_scsi_persresvout_control, align 4
  %127 = load i32, ptr @ett_persresv_control, align 4
  %128 = call ptr @proto_tree_add_bitmask(ptr noundef %122, ptr noundef %123, i32 noundef %125, i32 noundef %126, i32 noundef %127, ptr noundef @dissect_spc_persistentreserveout.persresv_fields, i32 noundef 0)
  %129 = load ptr, ptr %11, align 8
  %130 = load i32, ptr @hf_scsi_persresvout_rel_tpi, align 4
  %131 = load ptr, ptr %9, align 8
  %132 = load i32, ptr %12, align 4
  %133 = add i32 %132, 18
  %134 = call ptr @proto_tree_add_item(ptr noundef %129, i32 noundef %130, ptr noundef %131, i32 noundef %133, i32 noundef 2, i32 noundef 0)
  %135 = load ptr, ptr %11, align 8
  %136 = load i32, ptr @hf_scsi_persresvout_transportid_len, align 4
  %137 = load ptr, ptr %9, align 8
  %138 = load i32, ptr %12, align 4
  %139 = add i32 %138, 20
  %140 = call ptr @proto_tree_add_item(ptr noundef %135, i32 noundef %136, ptr noundef %137, i32 noundef %139, i32 noundef 4, i32 noundef 0)
  %141 = load ptr, ptr %11, align 8
  %142 = load i32, ptr @hf_scsi_persresvout_transportid, align 4
  %143 = load ptr, ptr %9, align 8
  %144 = load i32, ptr %12, align 4
  %145 = add i32 %144, 24
  %146 = load i32, ptr %18, align 4
  %147 = call ptr @proto_tree_add_item(ptr noundef %141, i32 noundef %142, ptr noundef %143, i32 noundef %145, i32 noundef %146, i32 noundef 0)
  br label %162

148:                                              ; preds = %92
  %149 = load ptr, ptr %11, align 8
  %150 = load i32, ptr @hf_scsi_persresvout_obsolete, align 4
  %151 = load ptr, ptr %9, align 8
  %152 = load i32, ptr %12, align 4
  %153 = add i32 %152, 16
  %154 = call ptr @proto_tree_add_item(ptr noundef %149, i32 noundef %150, ptr noundef %151, i32 noundef %153, i32 noundef 4, i32 noundef 0)
  %155 = load ptr, ptr %11, align 8
  %156 = load ptr, ptr %9, align 8
  %157 = load i32, ptr %12, align 4
  %158 = add i32 %157, 20
  %159 = load i32, ptr @hf_scsi_persresvout_control, align 4
  %160 = load i32, ptr @ett_persresv_control, align 4
  %161 = call ptr @proto_tree_add_bitmask(ptr noundef %155, ptr noundef %156, i32 noundef %158, i32 noundef %159, i32 noundef %160, ptr noundef @dissect_spc_persistentreserveout.persresv_fields.49, i32 noundef 0)
  br label %162

162:                                              ; preds = %148, %111
  br label %164

163:                                              ; preds = %89, %86
  br label %164

164:                                              ; preds = %163, %162
  br label %165

165:                                              ; preds = %164, %64, %21
  ret void
}