; Function Attrs: nounwind uwtable
define hidden void @dissect_spc_persistentreserveout(ptr noundef %0, ptr readnone captures(none) %1, ptr noundef %2, i32 noundef %3, i32 noundef %4, i32 noundef %5, i32 %6, ptr noundef readonly captures(none) %7) #0 {
  %.not = icmp eq ptr %2, null
  br i1 %.not, label %75, label %9

9:                                                ; preds = %8
  %10 = icmp ne i32 %4, 0
  %11 = icmp ne i32 %5, 0
  %or.cond = and i1 %10, %11
  br i1 %or.cond, label %12, label %36

12:                                               ; preds = %9
  %13 = tail call zeroext i8 @tvb_get_guint8(ptr noundef %0, i32 noundef %3) #10
  %14 = and i8 %13, 31
  %15 = load i32, ptr @hf_scsi_persresvout_svcaction, align 4
  %16 = tail call ptr @proto_tree_add_item(ptr noundef nonnull %2, i32 noundef %15, ptr noundef %0, i32 noundef %3, i32 noundef 1, i32 noundef 0) #10
  switch i8 %14, label %17 [
    i8 6, label %23
    i8 3, label %23
    i8 0, label %23
  ]

17:                                               ; preds = %12
  %18 = load i32, ptr @hf_scsi_persresv_scope, align 4
  %19 = add i32 %3, 1
  %20 = tail call ptr @proto_tree_add_item(ptr noundef nonnull %2, i32 noundef %18, ptr noundef %0, i32 noundef %19, i32 noundef 1, i32 noundef 0) #10
  %21 = load i32, ptr @hf_scsi_persresv_type, align 4
  %22 = tail call ptr @proto_tree_add_item(ptr noundef nonnull %2, i32 noundef %21, ptr noundef %0, i32 noundef %19, i32 noundef 1, i32 noundef 0) #10
  br label %23

23:                                               ; preds = %12, %12, %12, %17
  %24 = load i32, ptr @hf_scsi_paramlen16, align 4
  %25 = add i32 %3, 4
  %26 = tail call ptr @proto_tree_add_item(ptr noundef nonnull %2, i32 noundef %24, ptr noundef %0, i32 noundef %25, i32 noundef 4, i32 noundef 0) #10
  %27 = add i32 %3, 8
  %28 = load i32, ptr @hf_scsi_control, align 4
  %29 = load i32, ptr @ett_scsi_control, align 4
  %30 = tail call ptr @proto_tree_add_bitmask(ptr noundef nonnull %2, ptr noundef %0, i32 noundef %27, i32 noundef %28, i32 noundef %29, ptr noundef nonnull @cdb_control_fields, i32 noundef 0) #10
  %31 = tail call zeroext i8 @tvb_get_guint8(ptr noundef %0, i32 noundef %3) #10
  %32 = zext i8 %31 to i16
  %33 = getelementptr inbounds nuw i8, ptr %7, i64 8
  %34 = load ptr, ptr %33, align 8
  %35 = getelementptr inbounds nuw i8, ptr %34, i64 12
  store i16 %32, ptr %35, align 4
  br label %75

36:                                               ; preds = %9
  %37 = icmp eq i32 %4, 0
  %or.cond9 = or i1 %37, %11
  br i1 %or.cond9, label %75, label %38

38:                                               ; preds = %36
  %39 = load i32, ptr @hf_scsi_persresvout_reskey, align 4
  %40 = tail call ptr @proto_tree_add_item(ptr noundef nonnull %2, i32 noundef %39, ptr noundef %0, i32 noundef %3, i32 noundef 8, i32 noundef 0) #10
  %41 = load i32, ptr @hf_scsi_persresvout_sareskey, align 4
  %42 = add i32 %3, 8
  %43 = tail call ptr @proto_tree_add_item(ptr noundef nonnull %2, i32 noundef %41, ptr noundef %0, i32 noundef %42, i32 noundef 8, i32 noundef 0) #10
  %44 = getelementptr inbounds nuw i8, ptr %7, i64 8
  %45 = load ptr, ptr %44, align 8
  %46 = getelementptr inbounds nuw i8, ptr %45, i64 12
  %47 = load i16, ptr %46, align 4
  %48 = icmp eq i16 %47, 7
  br i1 %48, label %49, label %67

49:                                               ; preds = %38
  %50 = add i32 %3, 20
  %51 = tail call i32 @tvb_get_ntohl(ptr noundef %0, i32 noundef %50) #10
  %52 = load i32, ptr @hf_scsi_persresvout_obsolete, align 4
  %53 = add i32 %3, 16
  %54 = tail call ptr @proto_tree_add_item(ptr noundef nonnull %2, i32 noundef %52, ptr noundef %0, i32 noundef %53, i32 noundef 1, i32 noundef 0) #10
  %55 = add i32 %3, 17
  %56 = load i32, ptr @hf_scsi_persresvout_control, align 4
  %57 = load i32, ptr @ett_persresv_control, align 4
  %58 = tail call ptr @proto_tree_add_bitmask(ptr noundef nonnull %2, ptr noundef %0, i32 noundef %55, i32 noundef %56, i32 noundef %57, ptr noundef nonnull @dissect_spc_persistentreserveout.persresv_fields, i32 noundef 0) #10
  %59 = load i32, ptr @hf_scsi_persresvout_rel_tpi, align 4
  %60 = add i32 %3, 18
  %61 = tail call ptr @proto_tree_add_item(ptr noundef nonnull %2, i32 noundef %59, ptr noundef %0, i32 noundef %60, i32 noundef 2, i32 noundef 0) #10
  %62 = load i32, ptr @hf_scsi_persresvout_transportid_len, align 4
  %63 = tail call ptr @proto_tree_add_item(ptr noundef nonnull %2, i32 noundef %62, ptr noundef %0, i32 noundef %50, i32 noundef 4, i32 noundef 0) #10
  %64 = load i32, ptr @hf_scsi_persresvout_transportid, align 4
  %65 = add i32 %3, 24
  %66 = tail call ptr @proto_tree_add_item(ptr noundef nonnull %2, i32 noundef %64, ptr noundef %0, i32 noundef %65, i32 noundef %51, i32 noundef 0) #10
  br label %75

67:                                               ; preds = %38
  %68 = load i32, ptr @hf_scsi_persresvout_obsolete, align 4
  %69 = add i32 %3, 16
  %70 = tail call ptr @proto_tree_add_item(ptr noundef nonnull %2, i32 noundef %68, ptr noundef %0, i32 noundef %69, i32 noundef 4, i32 noundef 0) #10
  %71 = add i32 %3, 20
  %72 = load i32, ptr @hf_scsi_persresvout_control, align 4
  %73 = load i32, ptr @ett_persresv_control, align 4
  %74 = tail call ptr @proto_tree_add_bitmask(ptr noundef nonnull %2, ptr noundef %0, i32 noundef %71, i32 noundef %72, i32 noundef %73, ptr noundef nonnull @dissect_spc_persistentreserveout.persresv_fields.49, i32 noundef 0) #10
  br label %75

75:                                               ; preds = %67, %49, %36, %8, %23
  ret void
}